target datalayout = "e-m:e-p270:32:32-p271:32:32-p272:64:64-i64:64-i128:128-f80:128-n8:16:32:64-S128"
target triple = "x86_64-pc-linux-gnu"

%"class.Gluco2::vec.0" = type { ptr, i32, i32 }
%"class.Gluco2::Solver" = type { ptr, i32, ptr, ptr, i32, i8, ptr, i64, %"class.Gluco2::vec", %"class.Gluco2::vec.0", i32, %"class.Gluco2::vec.1", %"class.Gluco2::vec.0", i32, i32, i32, double, double, double, double, i32, i32, i32, i32, i32, i32, double, double, double, double, i32, i32, i8, i8, double, ptr, i8, i64, i64, i64, i64, i64, i64, i64, i64, i64, i64, i64, i64, i64, i64, i64, i64, i64, i64, i64, i64, i64, i64, i32, i8, double, %"class.Gluco2::vec.2", double, %"class.Gluco2::OccLists", %"class.Gluco2::OccLists", %"class.Gluco2::vec.5", %"class.Gluco2::vec.5", %"class.Gluco2::vec.1", %"class.Gluco2::vec.4", %"class.Gluco2::vec.4", %"class.Gluco2::vec.0", %"class.Gluco2::vec", %"class.Gluco2::vec", %"class.Gluco2::vec.6", i32, i32, i64, %"class.Gluco2::vec.0", %"class.Gluco2::Heap", double, i8, %"class.Gluco2::vec.5", %"class.Gluco2::vec.0", %"class.Gluco2::ClauseAllocator", i32, %"class.Gluco2::bqueue", %"class.Gluco2::bqueue", float, i32, %"class.Gluco2::vec.4", %"class.Gluco2::vec.0", %"class.Gluco2::vec.0", %"class.Gluco2::vec.0", i32, double, double, i32, i64, i64, i8, i32, i32, double, double, i32, i32, %"class.Gluco2::vec", %"class.Gluco2::vec", i8, %"class.Gluco2::vec.7", %"class.Gluco2::vec.5", %"class.Gluco2::vec.0", %"class.Gluco2::vec.0", i32, i32, i32, i32, %"class.Gluco2::Heap2", %"class.Gluco2::vec", %"class.Gluco2::vec", i32, %"class.Gluco2::vec", %"class.Gluco2::vec.0" }
%"class.Gluco2::vec.2" = type { ptr, i32, i32 }
%"class.Gluco2::OccLists" = type { %"class.Gluco2::vec.3", %"class.Gluco2::vec.4", %"class.Gluco2::vec.0", %"struct.Gluco2::Solver::WatcherDeleted" }
%"class.Gluco2::vec.3" = type { ptr, i32, i32 }
%"struct.Gluco2::Solver::WatcherDeleted" = type { ptr }
%"class.Gluco2::vec.1" = type { ptr, i32, i32 }
%"class.Gluco2::vec.6" = type { ptr, i32, i32 }
%"class.Gluco2::Heap" = type { %"struct.Gluco2::Solver::VarOrderLt", %"class.Gluco2::vec", %"class.Gluco2::vec" }
%"struct.Gluco2::Solver::VarOrderLt" = type { ptr }
%"class.Gluco2::ClauseAllocator" = type { %"class.Gluco2::RegionAllocator.base", i8, [3 x i8] }
%"class.Gluco2::RegionAllocator.base" = type <{ ptr, i32, i32, i32 }>
%"class.Gluco2::bqueue" = type { %"class.Gluco2::vec.5", i32, i32, i64, i32, i32, i8, double, double }
%"class.Gluco2::vec.4" = type { ptr, i32, i32 }
%"class.Gluco2::vec.7" = type { ptr, i32, i32 }
%"class.Gluco2::vec.5" = type { ptr, i32, i32 }
%"class.Gluco2::Heap2" = type { %"struct.Gluco2::Solver::JustOrderLt2", %"class.Gluco2::vec.8", %"class.Gluco2::vec" }
%"struct.Gluco2::Solver::JustOrderLt2" = type { ptr }
%"class.Gluco2::vec.8" = type { ptr, i32, i32 }
%"class.Gluco2::vec" = type { ptr, i32, i32 }
%"class.Gluco2::lbool" = type { i8 }
%"class.Gluco2::SimpSolver" = type <{ %"class.Gluco2::Solver", i32, i32, i32, i32, double, i8, i8, i8, i8, i32, i32, i32, i32, i32, i8, [7 x i8], %"class.Gluco2::vec.5", %"class.Gluco2::vec.4", %"class.Gluco2::OccLists.9", %"class.Gluco2::vec", %"class.Gluco2::Heap.11", %"class.Gluco2::Queue", %"class.Gluco2::vec.4", %"class.Gluco2::vec.4", i32, i32, i32, [4 x i8] }>
%"class.Gluco2::OccLists.9" = type { %"class.Gluco2::vec.10", %"class.Gluco2::vec.4", %"class.Gluco2::vec", %"struct.Gluco2::SimpSolver::ClauseDeleted" }
%"class.Gluco2::vec.10" = type { ptr, i32, i32 }
%"struct.Gluco2::SimpSolver::ClauseDeleted" = type { ptr }
%"class.Gluco2::Heap.11" = type { %"struct.Gluco2::SimpSolver::ElimLt", %"class.Gluco2::vec", %"class.Gluco2::vec" }
%"struct.Gluco2::SimpSolver::ElimLt" = type { ptr }
%"class.Gluco2::Queue" = type { %"class.Gluco2::vec.5", i32, i32 }

; Function Attrs: mustprogress nounwind uwtable
define linkonce_odr noundef nonnull align 1 dereferenceable(1) ptr @_ZNK6Gluco23vecINS_5lboolEEixEi(ptr noundef nonnull align 8 dereferenceable(16) %0, i32 noundef %1) #0 comdat align 2 {
  %3 = alloca ptr, align 8
  %4 = alloca i32, align 4
  store ptr %0, ptr %3, align 8, !tbaa !71
  store i32 %1, ptr %4, align 4, !tbaa !12
  %5 = load ptr, ptr %3, align 8
  %6 = getelementptr inbounds nuw %"class.Gluco2::vec.1", ptr %5, i32 0, i32 0
  %7 = load ptr, ptr %6, align 8, !tbaa !73
  %8 = load i32, ptr %4, align 4, !tbaa !12
  %9 = sext i32 %8 to i64
  %10 = getelementptr inbounds %"class.Gluco2::lbool", ptr %7, i64 %9
  ret ptr %10
}

; Function Attrs: mustprogress nounwind uwtable
define linkonce_odr noundef nonnull align 1 dereferenceable(1) ptr @_ZNK6Gluco23vecIcEixEi(ptr noundef nonnull align 8 dereferenceable(16) %0, i32 noundef %1) #0 comdat align 2 {
  %3 = alloca ptr, align 8
  %4 = alloca i32, align 4
  store ptr %0, ptr %3, align 8, !tbaa !240
  store i32 %1, ptr %4, align 4, !tbaa !12
  %5 = load ptr, ptr %3, align 8
  %6 = getelementptr inbounds nuw %"class.Gluco2::vec.4", ptr %5, i32 0, i32 0
  %7 = load ptr, ptr %6, align 8, !tbaa !243
  %8 = load i32, ptr %4, align 4, !tbaa !12
  %9 = sext i32 %8 to i64
  %10 = getelementptr inbounds i8, ptr %7, i64 %9
  ret ptr %10
}

; Function Attrs: mustprogress nounwind uwtable
define linkonce_odr noundef i32 @_ZNK6Gluco23vecIcE4sizeEv(ptr noundef nonnull align 8 dereferenceable(16) %0) #0 comdat align 2 {
  %2 = alloca ptr, align 8
  store ptr %0, ptr %2, align 8, !tbaa !240
  %3 = load ptr, ptr %2, align 8
  %4 = getelementptr inbounds nuw %"class.Gluco2::vec.4", ptr %3, i32 0, i32 1
  %5 = load i32, ptr %4, align 8, !tbaa !242
  ret i32 %5
}

; Function Attrs: mustprogress nounwind uwtable
define linkonce_odr noundef nonnull align 4 dereferenceable(4) ptr @_ZNK6Gluco23vecIiEixEi(ptr noundef nonnull align 8 dereferenceable(16) %0, i32 noundef %1) #0 comdat align 2 {
  %3 = alloca ptr, align 8
  %4 = alloca i32, align 4
  store ptr %0, ptr %3, align 8, !tbaa !101
  store i32 %1, ptr %4, align 4, !tbaa !12
  %5 = load ptr, ptr %3, align 8
  %6 = getelementptr inbounds nuw %"class.Gluco2::vec", ptr %5, i32 0, i32 0
  %7 = load ptr, ptr %6, align 8, !tbaa !105
  %8 = load i32, ptr %4, align 4, !tbaa !12
  %9 = sext i32 %8 to i64
  %10 = getelementptr inbounds i32, ptr %7, i64 %9
  ret ptr %10
}

; Function Attrs: mustprogress nounwind uwtable
define linkonce_odr noundef i32 @_ZNK6Gluco23vecIiE4sizeEv(ptr noundef nonnull align 8 dereferenceable(16) %0) #0 comdat align 2 {
  %2 = alloca ptr, align 8
  store ptr %0, ptr %2, align 8, !tbaa !101
  %3 = load ptr, ptr %2, align 8
  %4 = getelementptr inbounds nuw %"class.Gluco2::vec", ptr %3, i32 0, i32 1
  %5 = load i32, ptr %4, align 8, !tbaa !106
  ret i32 %5
}

; Function Attrs: mustprogress nounwind uwtable
define linkonce_odr noundef zeroext i1 @_ZNK6Gluco25lbooleqES0_(ptr noundef nonnull align 1 dereferenceable(1) %0, i8 %1) #0 comdat align 2 {
  %3 = alloca %"class.Gluco2::lbool", align 1
  %4 = alloca ptr, align 8
  %5 = getelementptr inbounds nuw %"class.Gluco2::lbool", ptr %3, i32 0, i32 0
  store i8 %1, ptr %5, align 1
  store ptr %0, ptr %4, align 8, !tbaa !74
  %6 = load ptr, ptr %4, align 8
  %7 = getelementptr inbounds nuw %"class.Gluco2::lbool", ptr %3, i32 0, i32 0
  %8 = load i8, ptr %7, align 1, !tbaa !75
  %9 = zext i8 %8 to i32
  %10 = and i32 %9, 2
  %11 = getelementptr inbounds nuw %"class.Gluco2::lbool", ptr %6, i32 0, i32 0
  %12 = load i8, ptr %11, align 1, !tbaa !75
  %13 = zext i8 %12 to i32
  %14 = and i32 %13, 2
  %15 = and i32 %10, %14
  %16 = getelementptr inbounds nuw %"class.Gluco2::lbool", ptr %3, i32 0, i32 0
  %17 = load i8, ptr %16, align 1, !tbaa !75
  %18 = zext i8 %17 to i32
  %19 = and i32 %18, 2
  %20 = icmp ne i32 %19, 0
  %21 = xor i1 %20, true
  %22 = zext i1 %21 to i32
  %23 = getelementptr inbounds nuw %"class.Gluco2::lbool", ptr %6, i32 0, i32 0
  %24 = load i8, ptr %23, align 1, !tbaa !75
  %25 = zext i8 %24 to i32
  %26 = getelementptr inbounds nuw %"class.Gluco2::lbool", ptr %3, i32 0, i32 0
  %27 = load i8, ptr %26, align 1, !tbaa !75
  %28 = zext i8 %27 to i32
  %29 = icmp eq i32 %25, %28
  %30 = zext i1 %29 to i32
  %31 = and i32 %22, %30
  %32 = or i32 %15, %31
  %33 = icmp ne i32 %32, 0
  ret i1 %33
}

; Function Attrs: mustprogress nounwind uwtable
define linkonce_odr void @_ZN6Gluco25lboolC2Eh(ptr noundef nonnull align 1 dereferenceable(1) %0, i8 noundef zeroext %1) unnamed_addr #0 comdat align 2 {
  %3 = alloca ptr, align 8
  %4 = alloca i8, align 1
  store ptr %0, ptr %3, align 8, !tbaa !74
  store i8 %1, ptr %4, align 1, !tbaa !77
  %5 = load ptr, ptr %3, align 8
  %6 = getelementptr inbounds nuw %"class.Gluco2::lbool", ptr %5, i32 0, i32 0
  %7 = load i8, ptr %4, align 1, !tbaa !77
  store i8 %7, ptr %6, align 1, !tbaa !75
  ret void
}

; Function Attrs: inlinehint mustprogress nounwind uwtable
define linkonce_odr i8 @_ZNK6Gluco26Solver5valueEi(ptr noundef nonnull align 8 dereferenceable(1416) %0, i32 noundef %1) #4 comdat align 2 {
  %3 = alloca %"class.Gluco2::lbool", align 1
  %4 = alloca ptr, align 8
  %5 = alloca i32, align 4
  store ptr %0, ptr %4, align 8, !tbaa !26
  store i32 %1, ptr %5, align 4, !tbaa !12
  %6 = load ptr, ptr %4, align 8
  %7 = getelementptr inbounds nuw %"class.Gluco2::Solver", ptr %6, i32 0, i32 68
  %8 = load i32, ptr %5, align 4, !tbaa !12
  %9 = call noundef nonnull align 1 dereferenceable(1) ptr @_ZNK6Gluco23vecINS_5lboolEEixEi(ptr noundef nonnull align 8 dereferenceable(16) %7, i32 noundef %8)
  call void @llvm.memcpy.p0.p0.i64(ptr align 1 %3, ptr align 1 %9, i64 1, i1 false), !tbaa.struct !246
  %10 = getelementptr inbounds nuw %"class.Gluco2::lbool", ptr %3, i32 0, i32 0
  %11 = load i8, ptr %10, align 1
  ret i8 %11
}

; Function Attrs: inlinehint mustprogress nounwind uwtable
define linkonce_odr noundef zeroext i1 @_ZNK6Gluco210SimpSolver12isEliminatedEi(ptr noundef nonnull align 8 dereferenceable(1684) %0, i32 noundef %1) #4 comdat align 2 {
  %3 = alloca ptr, align 8
  %4 = alloca i32, align 4
  store ptr %0, ptr %3, align 8, !tbaa !3
  store i32 %1, ptr %4, align 4, !tbaa !12
  %5 = load ptr, ptr %3, align 8
  %6 = getelementptr inbounds nuw %"class.Gluco2::SimpSolver", ptr %5, i32 0, i32 24
  %7 = call noundef i32 @_ZNK6Gluco23vecIcE4sizeEv(ptr noundef nonnull align 8 dereferenceable(16) %6)
  %8 = icmp sgt i32 %7, 0
  br i1 %8, label %9, label %17

9:                                                ; preds = %2
  %10 = getelementptr inbounds nuw %"class.Gluco2::SimpSolver", ptr %5, i32 0, i32 24
  %11 = load i32, ptr %4, align 4, !tbaa !12
  %12 = call noundef nonnull align 1 dereferenceable(1) ptr @_ZNK6Gluco23vecIcEixEi(ptr noundef nonnull align 8 dereferenceable(16) %10, i32 noundef %11)
  %13 = load i8, ptr %12, align 1, !tbaa !77
  %14 = sext i8 %13 to i32
  %15 = icmp ne i32 %14, 0
  %16 = zext i1 %15 to i32
  br label %18

17:                                               ; preds = %2
  br label %18

18:                                               ; preds = %17, %9
  %19 = phi i32 [ %16, %9 ], [ 0, %17 ]
  %20 = icmp ne i32 %19, 0
  ret i1 %20
}

; Function Attrs: mustprogress nounwind uwtable
define linkonce_odr noundef zeroext i1 @_ZNK6Gluco24HeapINS_10SimpSolver6ElimLtEE6inHeapEi(ptr noundef nonnull align 8 dereferenceable(40) %0, i32 noundef %1) #0 comdat align 2 {
  %3 = alloca ptr, align 8
  %4 = alloca i32, align 4
  store ptr %0, ptr %3, align 8, !tbaa !244
  store i32 %1, ptr %4, align 4, !tbaa !12
  %5 = load ptr, ptr %3, align 8
  %6 = load i32, ptr %4, align 4, !tbaa !12
  %7 = getelementptr inbounds nuw %"class.Gluco2::Heap.11", ptr %5, i32 0, i32 2
  %8 = call noundef i32 @_ZNK6Gluco23vecIiE4sizeEv(ptr noundef nonnull align 8 dereferenceable(16) %7)
  %9 = icmp slt i32 %6, %8
  br i1 %9, label %10, label %16

10:                                               ; preds = %2
  %11 = getelementptr inbounds nuw %"class.Gluco2::Heap.11", ptr %5, i32 0, i32 2
  %12 = load i32, ptr %4, align 4, !tbaa !12
  %13 = call noundef nonnull align 4 dereferenceable(4) ptr @_ZNK6Gluco23vecIiEixEi(ptr noundef nonnull align 8 dereferenceable(16) %11, i32 noundef %12)
  %14 = load i32, ptr %13, align 4, !tbaa !12
  %15 = icmp sge i32 %14, 0
  br label %16

16:                                               ; preds = %10, %2
  %17 = phi i1 [ false, %2 ], [ %15, %10 ]
  ret i1 %17
}

; Function Attrs: inlinehint mustprogress nounwind uwtable
define linkonce_odr void @_ZN6Gluco210SimpSolver14updateElimHeapEi(ptr noundef nonnull align 8 dereferenceable(1684) %0, i32 noundef %1) #4 comdat align 2 {
  %3 = alloca ptr, align 8
  %4 = alloca i32, align 4
  %5 = alloca %"class.Gluco2::lbool", align 1
  %6 = alloca %"class.Gluco2::lbool", align 1
  store ptr %0, ptr %3, align 8, !tbaa !3
  store i32 %1, ptr %4, align 4, !tbaa !12
  %7 = load ptr, ptr %3, align 8
  %8 = getelementptr inbounds nuw %"class.Gluco2::SimpSolver", ptr %7, i32 0, i32 21
  %9 = load i32, ptr %4, align 4, !tbaa !12
  %10 = call noundef zeroext i1 @_ZNK6Gluco24HeapINS_10SimpSolver6ElimLtEE6inHeapEi(ptr noundef nonnull align 8 dereferenceable(40) %8, i32 noundef %9)
  call void @llvm.lifetime.start.p0(i64 1, ptr %5) #15
  br i1 %10, label %29, label %11

11:                                               ; preds = %2
  %12 = getelementptr inbounds nuw %"class.Gluco2::SimpSolver", ptr %7, i32 0, i32 23
  %13 = load i32, ptr %4, align 4, !tbaa !12
  %14 = call noundef nonnull align 1 dereferenceable(1) ptr @_ZN6Gluco23vecIcEixEi(ptr noundef nonnull align 8 dereferenceable(16) %12, i32 noundef %13)
  %15 = load i8, ptr %14, align 1, !tbaa !77
  %16 = icmp ne i8 %15, 0
  br i1 %16, label %27, label %17

17:                                               ; preds = %11
  %18 = load i32, ptr %4, align 4, !tbaa !12
  %19 = call noundef zeroext i1 @_ZNK6Gluco210SimpSolver12isEliminatedEi(ptr noundef nonnull align 8 dereferenceable(1684) %7, i32 noundef %18)
  br i1 %19, label %27, label %20

20:                                               ; preds = %17
  %21 = load i32, ptr %4, align 4, !tbaa !12
  %22 = call i8 @_ZNK6Gluco26Solver5valueEi(ptr noundef nonnull align 8 dereferenceable(1416) %7, i32 noundef %21)
  %23 = getelementptr inbounds nuw %"class.Gluco2::lbool", ptr %5, i32 0, i32 0
  store i8 %22, ptr %23, align 1
  call void @_ZN6Gluco25lboolC2Eh(ptr noundef nonnull align 1 dereferenceable(1) %6, i8 noundef zeroext 2)
  %24 = getelementptr inbounds nuw %"class.Gluco2::lbool", ptr %6, i32 0, i32 0
  %25 = load i8, ptr %24, align 1
  %26 = call noundef zeroext i1 @_ZNK6Gluco25lbooleqES0_(ptr noundef nonnull align 1 dereferenceable(1) %5, i8 %25)
  br label %27

27:                                               ; preds = %20, %17, %11
  %28 = phi i1 [ false, %17 ], [ false, %11 ], [ %26, %20 ]
  br label %29

29:                                               ; preds = %27, %2
  %30 = phi i1 [ true, %2 ], [ %28, %27 ]
  call void @llvm.lifetime.end.p0(i64 1, ptr %5) #15
  br i1 %30, label %31, label %34

31:                                               ; preds = %29
  %32 = getelementptr inbounds nuw %"class.Gluco2::SimpSolver", ptr %7, i32 0, i32 21
  %33 = load i32, ptr %4, align 4, !tbaa !12
  call void @_ZN6Gluco24HeapINS_10SimpSolver6ElimLtEE6updateEi(ptr noundef nonnull align 8 dereferenceable(40) %32, i32 noundef %33)
  br label %34

34:                                               ; preds = %31, %29
  ret void
}

; Function Attrs: mustprogress nounwind uwtable
define linkonce_odr noundef nonnull align 1 dereferenceable(1) ptr @_ZN6Gluco23vecIcEixEi(ptr noundef nonnull align 8 dereferenceable(16) %0, i32 noundef %1) #0 comdat align 2 {
  %3 = alloca ptr, align 8
  %4 = alloca i32, align 4
  store ptr %0, ptr %3, align 8, !tbaa !240
  store i32 %1, ptr %4, align 4, !tbaa !12
  %5 = load ptr, ptr %3, align 8
  %6 = getelementptr inbounds nuw %"class.Gluco2::vec.4", ptr %5, i32 0, i32 0
  %7 = load ptr, ptr %6, align 8, !tbaa !243
  %8 = load i32, ptr %4, align 4, !tbaa !12
  %9 = sext i32 %8 to i64
  %10 = getelementptr inbounds i8, ptr %7, i64 %9
  ret ptr %10
}

; Function Attrs: inlinehint mustprogress nounwind uwtable
define linkonce_odr void @_ZN6Gluco210SimpSolver9setFrozenEib(ptr noundef nonnull align 8 dereferenceable(1684) %0, i32 noundef %1, i1 noundef zeroext %2) #4 comdat align 2 {
  %4 = alloca ptr, align 8
  %5 = alloca i32, align 4
  %6 = alloca i8, align 1
  store ptr %0, ptr %4, align 8, !tbaa !3
  store i32 %1, ptr %5, align 4, !tbaa !12
  %7 = zext i1 %2 to i8
  store i8 %7, ptr %6, align 1, !tbaa !67
  %8 = load ptr, ptr %4, align 8
  %9 = load i8, ptr %6, align 1, !tbaa !67, !range !69, !noundef !70
  %10 = trunc i8 %9 to i1
  %11 = zext i1 %10 to i8
  %12 = getelementptr inbounds nuw %"class.Gluco2::SimpSolver", ptr %8, i32 0, i32 23
  %13 = load i32, ptr %5, align 4, !tbaa !12
  %14 = call noundef nonnull align 1 dereferenceable(1) ptr @_ZN6Gluco23vecIcEixEi(ptr noundef nonnull align 8 dereferenceable(16) %12, i32 noundef %13)
  store i8 %11, ptr %14, align 1, !tbaa !77
  %15 = getelementptr inbounds nuw %"class.Gluco2::SimpSolver", ptr %8, i32 0, i32 15
  %16 = load i8, ptr %15, align 8, !tbaa !85, !range !69, !noundef !70
  %17 = trunc i8 %16 to i1
  br i1 %17, label %18, label %23

18:                                               ; preds = %3
  %19 = load i8, ptr %6, align 1, !tbaa !67, !range !69, !noundef !70
  %20 = trunc i8 %19 to i1
  br i1 %20, label %23, label %21

21:                                               ; preds = %18
  %22 = load i32, ptr %5, align 4, !tbaa !12
  call void @_ZN6Gluco210SimpSolver14updateElimHeapEi(ptr noundef nonnull align 8 dereferenceable(1684) %8, i32 noundef %22)
  br label %23

23:                                               ; preds = %21, %18, %3
  ret void
}

; Function Attrs: mustprogress nounwind uwtable
define void @bmcg2_sat_solver_var_set_frozen(ptr noundef %0, i32 noundef %1, i32 noundef %2) #0 {
  %4 = alloca ptr, align 8
  %5 = alloca i32, align 4
  %6 = alloca i32, align 4
  store ptr %0, ptr %4, align 8, !tbaa !30
  store i32 %1, ptr %5, align 4, !tbaa !12
  store i32 %2, ptr %6, align 4, !tbaa !12
  %7 = load ptr, ptr %4, align 8, !tbaa !30
  %8 = load i32, ptr %5, align 4, !tbaa !12
  %9 = load i32, ptr %6, align 4, !tbaa !12
  %10 = icmp ne i32 %9, 0
  call void @_ZN6Gluco210SimpSolver9setFrozenEib(ptr noundef nonnull align 8 dereferenceable(1684) %7, i32 noundef %8, i1 noundef zeroext %10)
  ret void
}