; Function Attrs: mustprogress nounwind uwtable
define void @bmcg2_sat_solver_var_set_frozen(ptr noundef %0, i32 noundef %1, i32 noundef %2) local_unnamed_addr #0 {
  %4 = icmp ne i32 %2, 0
  %5 = zext i1 %4 to i8
  %6 = getelementptr inbounds nuw i8, ptr %0, i64 1640
  %7 = load ptr, ptr %6, align 8, !tbaa !72
  %8 = sext i32 %1 to i64
  %9 = getelementptr inbounds i8, ptr %7, i64 %8
  store i8 %5, ptr %9, align 1, !tbaa !73
  %10 = getelementptr inbounds nuw i8, ptr %0, i64 1464
  %11 = load i8, ptr %10, align 8, !tbaa !74, !range !84, !noundef !85
  %12 = trunc nuw i8 %11 to i1
  %.not.i = xor i1 %12, true
  %brmerge.i = or i1 %4, %.not.i
  br i1 %brmerge.i, label %_ZN6Gluco210SimpSolver9setFrozenEib.exit, label %13

13:                                               ; preds = %3
  %14 = getelementptr inbounds nuw i8, ptr %0, i64 1576
  %15 = getelementptr inbounds nuw i8, ptr %0, i64 1608
  %16 = load i32, ptr %15, align 8, !tbaa !64
  %17 = icmp slt i32 %1, %16
  br i1 %17, label %_ZNK6Gluco24HeapINS_10SimpSolver6ElimLtEE6inHeapEi.exit.i.i, label %_ZNK6Gluco24HeapINS_10SimpSolver6ElimLtEE6inHeapEi.exit.thread.i.i

_ZNK6Gluco24HeapINS_10SimpSolver6ElimLtEE6inHeapEi.exit.i.i: ; preds = %13
  %18 = getelementptr inbounds nuw i8, ptr %0, i64 1600
  %19 = load ptr, ptr %18, align 8, !tbaa !65
  %20 = getelementptr inbounds i32, ptr %19, i64 %8
  %21 = load i32, ptr %20, align 4, !tbaa !6
  %22 = icmp sgt i32 %21, -1
  br i1 %22, label %.critedge.i.i, label %_ZNK6Gluco24HeapINS_10SimpSolver6ElimLtEE6inHeapEi.exit.thread.i.i

_ZNK6Gluco24HeapINS_10SimpSolver6ElimLtEE6inHeapEi.exit.thread.i.i: ; preds = %_ZNK6Gluco24HeapINS_10SimpSolver6ElimLtEE6inHeapEi.exit.i.i, %13
  %23 = load ptr, ptr %6, align 8, !tbaa !72
  %24 = getelementptr inbounds i8, ptr %23, i64 %8
  %25 = load i8, ptr %24, align 1, !tbaa !73
  %.not.i.i = icmp eq i8 %25, 0
  br i1 %.not.i.i, label %26, label %_ZN6Gluco210SimpSolver9setFrozenEib.exit

26:                                               ; preds = %_ZNK6Gluco24HeapINS_10SimpSolver6ElimLtEE6inHeapEi.exit.thread.i.i
  %27 = getelementptr inbounds nuw i8, ptr %0, i64 1664
  %28 = load i32, ptr %27, align 8, !tbaa !71
  %29 = icmp sgt i32 %28, 0
  br i1 %29, label %_ZNK6Gluco210SimpSolver12isEliminatedEi.exit.i.i, label %_ZNK6Gluco210SimpSolver12isEliminatedEi.exit.thread.i.i

_ZNK6Gluco210SimpSolver12isEliminatedEi.exit.i.i: ; preds = %26
  %30 = getelementptr inbounds nuw i8, ptr %0, i64 1656
  %31 = load ptr, ptr %30, align 8, !tbaa !72
  %32 = getelementptr inbounds i8, ptr %31, i64 %8
  %33 = load i8, ptr %32, align 1, !tbaa !73
  %.not8.i.i = icmp eq i8 %33, 0
  br i1 %.not8.i.i, label %_ZNK6Gluco210SimpSolver12isEliminatedEi.exit.thread.i.i, label %_ZN6Gluco210SimpSolver9setFrozenEib.exit

_ZNK6Gluco210SimpSolver12isEliminatedEi.exit.thread.i.i: ; preds = %_ZNK6Gluco210SimpSolver12isEliminatedEi.exit.i.i, %26
  %34 = getelementptr inbounds nuw i8, ptr %0, i64 632
  %35 = load ptr, ptr %34, align 8, !tbaa !58
  %36 = getelementptr inbounds %"class.Gluco2::lbool", ptr %35, i64 %8
  %.sroa.0.0.copyload.i.i.i = load i8, ptr %36, align 1, !tbaa !73
  %37 = and i8 %.sroa.0.0.copyload.i.i.i, 2
  %.not9.i.i = icmp eq i8 %37, 0
  br i1 %.not9.i.i, label %_ZN6Gluco210SimpSolver9setFrozenEib.exit, label %.critedge.i.i

.critedge.i.i:                                    ; preds = %_ZNK6Gluco210SimpSolver12isEliminatedEi.exit.thread.i.i, %_ZNK6Gluco24HeapINS_10SimpSolver6ElimLtEE6inHeapEi.exit.i.i
  tail call void @_ZN6Gluco24HeapINS_10SimpSolver6ElimLtEE6updateEi(ptr noundef nonnull align 8 dereferenceable(40) %14, i32 noundef %1)
  br label %_ZN6Gluco210SimpSolver9setFrozenEib.exit

_ZN6Gluco210SimpSolver9setFrozenEib.exit:         ; preds = %3, %_ZNK6Gluco24HeapINS_10SimpSolver6ElimLtEE6inHeapEi.exit.thread.i.i, %_ZNK6Gluco210SimpSolver12isEliminatedEi.exit.i.i, %_ZNK6Gluco210SimpSolver12isEliminatedEi.exit.thread.i.i, %.critedge.i.i
  ret void
}